; Function Attrs: nounwind uwtable
define hidden void @_mi_heap_destroy_pages(ptr noundef %0) local_unnamed_addr #0 {
  %2 = icmp eq ptr %0, null
  br i1 %2, label %mi_heap_visit_pages.exit, label %3

3:                                                ; preds = %1
  %4 = getelementptr inbounds nuw i8, ptr %0, i64 192
  %5 = load i64, ptr %4, align 8, !tbaa !31
  %6 = icmp eq i64 %5, 0
  br i1 %6, label %mi_heap_visit_pages.exit, label %.preheader.i

.preheader.i:                                     ; preds = %3
  %7 = getelementptr inbounds nuw i8, ptr %0, i64 1264
  br label %8

8:                                                ; preds = %.critedge.i, %.preheader.i
  %.02229.i = phi i64 [ 0, %.preheader.i ], [ %16, %.critedge.i ]
  %9 = getelementptr inbounds nuw [75 x %struct.mi_page_queue_s], ptr %7, i64 0, i64 %.02229.i
  %10 = load ptr, ptr %9, align 8, !tbaa !32
  %.not.i2 = icmp eq ptr %10, null
  br i1 %.not.i2, label %.critedge.i, label %.lr.ph

.lr.ph:                                           ; preds = %8, %.lr.ph
  %.020.i3 = phi ptr [ %12, %.lr.ph ], [ %10, %8 ]
  %11 = getelementptr inbounds nuw i8, ptr %.020.i3, i64 64
  %12 = load ptr, ptr %11, align 8, !tbaa !33
  tail call void @_mi_page_use_delayed_free(ptr noundef nonnull %.020.i3, i32 noundef 3, i1 noundef zeroext false) #11
  %13 = getelementptr inbounds nuw i8, ptr %.020.i3, i64 24
  store i16 0, ptr %13, align 8, !tbaa !41
  tail call void @llvm.memset.p0.i64(ptr noundef nonnull align 8 dereferenceable(16) %11, i8 0, i64 16, i1 false)
  %14 = load ptr, ptr %0, align 8, !tbaa !14
  %15 = getelementptr inbounds nuw i8, ptr %14, i64 32
  tail call void @_mi_segment_page_free(ptr noundef nonnull %.020.i3, i1 noundef zeroext false, ptr noundef nonnull %15) #11
  %.not.i = icmp eq ptr %12, null
  br i1 %.not.i, label %.critedge.i, label %.lr.ph, !llvm.loop !38

.critedge.i:                                      ; preds = %.lr.ph, %8
  %16 = add nuw nsw i64 %.02229.i, 1
  %exitcond.i = icmp eq i64 %16, 75
  br i1 %exitcond.i, label %mi_heap_visit_pages.exit, label %8, !llvm.loop !40

mi_heap_visit_pages.exit:                         ; preds = %.critedge.i, %1, %3
  %17 = getelementptr inbounds nuw i8, ptr %0, i64 232
  tail call void @llvm.memset.p0.i64(ptr noundef nonnull align 8 dereferenceable(1032) %17, i8 0, i64 1032, i1 false)
  %18 = getelementptr inbounds nuw i8, ptr %0, i64 1264
  call void @llvm.assume(i1 true) [ "align"(ptr %18, i64 8) ]
  call void @llvm.assume(i1 true) [ "align"(ptr getelementptr inbounds nuw (i8, ptr @_mi_heap_empty, i64 1264), i64 8) ]
  tail call void @llvm.memcpy.p0.p0.i64(ptr noundef nonnull align 8 dereferenceable(1800) %18, ptr noundef nonnull readonly align 8 dereferenceable(1800) getelementptr inbounds nuw (i8, ptr @_mi_heap_empty, i64 1264), i64 range(i64 1800, 3065) 1800, i1 false)
  %19 = getelementptr inbounds nuw i8, ptr %0, i64 8
  store atomic ptr null, ptr %19 seq_cst, align 8, !tbaa !50
  %20 = getelementptr inbounds nuw i8, ptr %0, i64 192
  store i64 0, ptr %20, align 8, !tbaa !31
  ret void
}